target datalayout = "e-m:e-p270:32:32-p271:32:32-p272:64:64-i64:64-i128:128-f80:128-n8:16:32:64-S128"
target triple = "x86_64-pc-linux-gnu"

; Function Attrs: mustprogress uwtable
define internal noundef i32 @_ZL12check_pollerPv(ptr noundef %0) #1 {
  %2 = alloca i32, align 4
  %3 = alloca ptr, align 8
  store ptr %0, ptr %3, align 8, !tbaa !12
  %4 = load ptr, ptr %3, align 8, !tbaa !12
  %5 = icmp ne ptr %4, null
  br i1 %5, label %6, label %9

6:                                                ; preds = %1
  %7 = load ptr, ptr %3, align 8, !tbaa !12
  %8 = call noundef zeroext i1 @_ZNK3zmq15socket_poller_t9check_tagEv(ptr noundef nonnull align 8 dereferenceable(56) %7)
  br i1 %8, label %11, label %9

9:                                                ; preds = %6, %1
  %10 = call ptr @__errno_location() #19
  store i32 14, ptr %10, align 4, !tbaa !8
  store i32 -1, ptr %2, align 4
  br label %12

11:                                               ; preds = %6
  store i32 0, ptr %2, align 4
  br label %12

12:                                               ; preds = %11, %9
  %13 = load i32, ptr %2, align 4
  ret i32 %13
}

; Function Attrs: mustprogress nounwind uwtable
define internal noundef i32 @_ZL12check_eventss(i16 noundef signext %0) #0 {
  %2 = alloca i32, align 4
  %3 = alloca i16, align 2
  store i16 %0, ptr %3, align 2, !tbaa !65
  %4 = load i16, ptr %3, align 2, !tbaa !65
  %5 = sext i16 %4 to i32
  %6 = and i32 %5, -16
  %7 = icmp ne i32 %6, 0
  br i1 %7, label %8, label %10

8:                                                ; preds = %1
  %9 = call ptr @__errno_location() #19
  store i32 22, ptr %9, align 4, !tbaa !8
  store i32 -1, ptr %2, align 4
  br label %11

10:                                               ; preds = %1
  store i32 0, ptr %2, align 4
  br label %11

11:                                               ; preds = %10, %8
  %12 = load i32, ptr %2, align 4
  ret i32 %12
}

; Function Attrs: mustprogress uwtable
define internal noundef i32 @_ZL30check_poller_registration_argsPvS_(ptr noundef %0, ptr noundef %1) #1 {
  %3 = alloca i32, align 4
  %4 = alloca ptr, align 8
  %5 = alloca ptr, align 8
  store ptr %0, ptr %4, align 8, !tbaa !12
  store ptr %1, ptr %5, align 8, !tbaa !12
  %6 = load ptr, ptr %4, align 8, !tbaa !12
  %7 = call noundef i32 @_ZL12check_pollerPv(ptr noundef %6)
  %8 = icmp eq i32 -1, %7
  br i1 %8, label %9, label %10

9:                                                ; preds = %2
  store i32 -1, ptr %3, align 4
  br label %19

10:                                               ; preds = %2
  %11 = load ptr, ptr %5, align 8, !tbaa !12
  %12 = icmp ne ptr %11, null
  br i1 %12, label %13, label %16

13:                                               ; preds = %10
  %14 = load ptr, ptr %5, align 8, !tbaa !12
  %15 = call noundef zeroext i1 @_ZNK3zmq13socket_base_t9check_tagEv(ptr noundef nonnull align 8 dereferenceable(1825) %14)
  br i1 %15, label %18, label %16

16:                                               ; preds = %13, %10
  %17 = call ptr @__errno_location() #19
  store i32 88, ptr %17, align 4, !tbaa !8
  store i32 -1, ptr %3, align 4
  br label %19

18:                                               ; preds = %13
  store i32 0, ptr %3, align 4
  br label %19

19:                                               ; preds = %18, %16, %9
  %20 = load i32, ptr %3, align 4
  ret i32 %20
}

; Function Attrs: mustprogress uwtable
define i32 @zmq_poller_add(ptr noundef %0, ptr noundef %1, ptr noundef %2, i16 noundef signext %3) #1 {
  %5 = alloca i32, align 4
  %6 = alloca ptr, align 8
  %7 = alloca ptr, align 8
  %8 = alloca ptr, align 8
  %9 = alloca i16, align 2
  %10 = alloca ptr, align 8
  store ptr %0, ptr %6, align 8, !tbaa !12
  store ptr %1, ptr %7, align 8, !tbaa !12
  store ptr %2, ptr %8, align 8, !tbaa !12
  store i16 %3, ptr %9, align 2, !tbaa !65
  %11 = load ptr, ptr %6, align 8, !tbaa !12
  %12 = load ptr, ptr %7, align 8, !tbaa !12
  %13 = call noundef i32 @_ZL30check_poller_registration_argsPvS_(ptr noundef %11, ptr noundef %12)
  %14 = icmp eq i32 -1, %13
  br i1 %14, label %19, label %15

15:                                               ; preds = %4
  %16 = load i16, ptr %9, align 2, !tbaa !65
  %17 = call noundef i32 @_ZL12check_eventss(i16 noundef signext %16)
  %18 = icmp eq i32 -1, %17
  br i1 %18, label %19, label %20

19:                                               ; preds = %15, %4
  store i32 -1, ptr %5, align 4
  br label %27

20:                                               ; preds = %15
  call void @llvm.lifetime.start.p0(i64 8, ptr %10) #20
  %21 = load ptr, ptr %7, align 8, !tbaa !12
  store ptr %21, ptr %10, align 8, !tbaa !17
  %22 = load ptr, ptr %6, align 8, !tbaa !12
  %23 = load ptr, ptr %10, align 8, !tbaa !17
  %24 = load ptr, ptr %8, align 8, !tbaa !12
  %25 = load i16, ptr %9, align 2, !tbaa !65
  %26 = call noundef i32 @_ZN3zmq15socket_poller_t3addEPNS_13socket_base_tEPvs(ptr noundef nonnull align 8 dereferenceable(56) %22, ptr noundef %23, ptr noundef %24, i16 noundef signext %25)
  store i32 %26, ptr %5, align 4
  call void @llvm.lifetime.end.p0(i64 8, ptr %10) #20
  br label %27

27:                                               ; preds = %20, %19
  %28 = load i32, ptr %5, align 4
  ret i32 %28
}