; Function Attrs: mustprogress uwtable
define noundef i32 @zmq_poller_add(ptr noundef %0, ptr noundef %1, ptr noundef %2, i16 noundef signext %3) local_unnamed_addr #1 {
  %.not.i.i = icmp eq ptr %0, null
  br i1 %.not.i.i, label %_ZL30check_poller_registration_argsPvS_.exit.thread, label %5

5:                                                ; preds = %4
  %6 = tail call noundef zeroext i1 @_ZNK3zmq15socket_poller_t9check_tagEv(ptr noundef nonnull align 8 dereferenceable(56) %0)
  br i1 %6, label %_ZL12check_pollerPv.exit.i, label %_ZL30check_poller_registration_argsPvS_.exit.thread

_ZL12check_pollerPv.exit.i:                       ; preds = %5
  %.not.i = icmp eq ptr %1, null
  br i1 %.not.i, label %_ZL30check_poller_registration_argsPvS_.exit.thread, label %7

7:                                                ; preds = %_ZL12check_pollerPv.exit.i
  %8 = tail call noundef zeroext i1 @_ZNK3zmq13socket_base_t9check_tagEv(ptr noundef nonnull align 8 dereferenceable(1825) %1)
  br i1 %8, label %_ZL30check_poller_registration_argsPvS_.exit, label %_ZL30check_poller_registration_argsPvS_.exit.thread

_ZL30check_poller_registration_argsPvS_.exit.thread: ; preds = %4, %5, %_ZL12check_pollerPv.exit.i, %7
  %.sink.i = phi i32 [ 14, %4 ], [ 14, %5 ], [ 88, %7 ], [ 88, %_ZL12check_pollerPv.exit.i ]
  %9 = tail call ptr @__errno_location() #20
  store i32 %.sink.i, ptr %9, align 4, !tbaa !3
  br label %12

_ZL30check_poller_registration_argsPvS_.exit:     ; preds = %7
  %.not.i8 = icmp ult i16 %3, 16
  br i1 %.not.i8, label %_ZL12check_eventss.exit, label %_ZL12check_eventss.exit.thread

_ZL12check_eventss.exit.thread:                   ; preds = %_ZL30check_poller_registration_argsPvS_.exit
  %10 = tail call ptr @__errno_location() #20
  store i32 22, ptr %10, align 4, !tbaa !3
  br label %12

_ZL12check_eventss.exit:                          ; preds = %_ZL30check_poller_registration_argsPvS_.exit
  %11 = tail call noundef i32 @_ZN3zmq15socket_poller_t3addEPNS_13socket_base_tEPvs(ptr noundef nonnull align 8 dereferenceable(56) %0, ptr noundef nonnull %1, ptr noundef %2, i16 noundef signext %3)
  br label %12

12:                                               ; preds = %_ZL12check_eventss.exit.thread, %_ZL30check_poller_registration_argsPvS_.exit.thread, %_ZL12check_eventss.exit
  %.0 = phi i32 [ %11, %_ZL12check_eventss.exit ], [ -1, %_ZL30check_poller_registration_argsPvS_.exit.thread ], [ -1, %_ZL12check_eventss.exit.thread ]
  ret i32 %.0
}